target datalayout = "e-m:e-p270:32:32-p271:32:32-p272:64:64-i64:64-i128:128-f80:128-n8:16:32:64-S128"
target triple = "x86_64-pc-linux-gnu"

%struct.PCF_FaceRec_ = type { %struct.FT_FaceRec_, %struct.FT_StreamRec_, ptr, ptr, ptr, %struct.PCF_TocRec_, %struct.PCF_AccelRec_, i32, ptr, i64, ptr, %struct.PCF_EncRec_, i64 }
%struct.FT_FaceRec_ = type { i64, i64, i64, i64, i64, ptr, ptr, i32, ptr, i32, ptr, %struct.FT_Generic_, %struct.FT_BBox_, i16, i16, i16, i16, i16, i16, i16, i16, ptr, ptr, ptr, ptr, ptr, ptr, %struct.FT_ListRec_, %struct.FT_Generic_, ptr, ptr }
%struct.FT_BBox_ = type { i64, i64, i64, i64 }
%struct.FT_ListRec_ = type { ptr, ptr }
%struct.FT_Generic_ = type { ptr, ptr }
%struct.FT_StreamRec_ = type { ptr, i64, i64, %union.FT_StreamDesc_, %union.FT_StreamDesc_, ptr, ptr, ptr, ptr, ptr }
%union.FT_StreamDesc_ = type { i64 }
%struct.PCF_TocRec_ = type { i64, i64, ptr }
%struct.PCF_AccelRec_ = type { i8, i8, i8, i8, i8, i8, i8, i64, i64, i64, %struct.PCF_MetricRec_, %struct.PCF_MetricRec_, %struct.PCF_MetricRec_, %struct.PCF_MetricRec_ }
%struct.PCF_MetricRec_ = type { i16, i16, i16, i16, i16, i16, i64 }
%struct.PCF_EncRec_ = type { i16, i16, i16, i16, i16, ptr }

; Function Attrs: nounwind uwtable
define internal i32 @pcf_get_charset_id(ptr noundef %0, ptr noundef %1, ptr noundef %2) #0 {
  %4 = alloca ptr, align 8
  %5 = alloca ptr, align 8
  %6 = alloca ptr, align 8
  %7 = alloca ptr, align 8
  store ptr %0, ptr %4, align 8
  store ptr %1, ptr %5, align 8
  store ptr %2, ptr %6, align 8
  %8 = load ptr, ptr %4, align 8
  store ptr %8, ptr %7, align 8
  %9 = load ptr, ptr %7, align 8
  %10 = getelementptr inbounds %struct.PCF_FaceRec_, ptr %9, i32 0, i32 3
  %11 = load ptr, ptr %10, align 8
  %12 = load ptr, ptr %5, align 8
  store ptr %11, ptr %12, align 8
  %13 = load ptr, ptr %7, align 8
  %14 = getelementptr inbounds %struct.PCF_FaceRec_, ptr %13, i32 0, i32 4
  %15 = load ptr, ptr %14, align 8
  %16 = load ptr, ptr %6, align 8
  store ptr %15, ptr %16, align 8
  ret i32 0
}