; Function Attrs: mustprogress nofree norecurse nosync nounwind willreturn memory(argmem: readwrite) uwtable
define internal noundef i32 @pcf_get_charset_id(ptr nocapture noundef readonly %0, ptr nocapture noundef writeonly %1, ptr nocapture noundef writeonly %2) #3 {
  %4 = getelementptr inbounds i8, ptr %0, i64 336
  %5 = load ptr, ptr %4, align 8
  store ptr %5, ptr %1, align 8
  %6 = getelementptr inbounds i8, ptr %0, i64 344
  %7 = load ptr, ptr %6, align 8
  store ptr %7, ptr %2, align 8
  ret i32 0
}